; Function Attrs: mustprogress uwtable
define noundef zeroext i16 @unorm_getFCD16_75(i32 noundef %c) local_unnamed_addr #4 personality ptr @__gxx_personality_v0 {
if.end.i.i.i:
  %0 = load atomic i32, ptr @_ZN6icu_75L11nfcInitOnceE acquire, align 4
  %cmp.not.i.i.i = icmp eq i32 %0, 2
  br i1 %cmp.not.i.i.i, label %if.else.i.i.i, label %land.lhs.true.i.i.i

land.lhs.true.i.i.i:                              ; preds = %if.end.i.i.i
  %call2.i.i.i = tail call noundef signext i8 @_ZN6icu_7520umtx_initImplPreInitERNS_9UInitOnceE(ptr noundef nonnull align 4 dereferenceable(8) @_ZN6icu_75L11nfcInitOnceE)
  %tobool3.not.i.i.i = icmp eq i8 %call2.i.i.i, 0
  br i1 %tobool3.not.i.i.i, label %if.else.i.i.i, label %if.end.i

if.end.i:                                         ; preds = %land.lhs.true.i.i.i
  %call1.i = tail call noundef ptr @_ZN6icu_757UMemorynwEm(i64 noundef 80) #13
  %new.isnull.i = icmp eq ptr %call1.i, null
  br i1 %new.isnull.i, label %_ZN6icu_7513Norm2AllModes17createNFCInstanceER10UErrorCode.exit, label %if.end.i.i

if.end.i.i:                                       ; preds = %if.end.i
  store ptr getelementptr inbounds ({ [5 x ptr] }, ptr @_ZTVN6icu_7515Normalizer2ImplE, i64 0, i32 0, i64 2), ptr %call1.i, align 8
  %normTrie.i.i = getelementptr inbounds i8, ptr %call1.i, i64 32
  store ptr null, ptr %normTrie.i.i, align 8
  %fCanonIterDataInitOnce.i.i = getelementptr inbounds i8, ptr %call1.i, i64 64
  tail call void @llvm.memset.p0.i64(ptr noundef nonnull align 8 dereferenceable(16) %fCanonIterDataInitOnce.i.i, i8 0, i64 16, i1 false)
  tail call void @_ZN6icu_7515Normalizer2Impl4initEPKiPK7UCPTriePKtPKh(ptr noundef nonnull align 8 dereferenceable(80) %call1.i, ptr noundef nonnull @_ZL22norm2_nfc_data_indexes, ptr noundef nonnull @_ZL19norm2_nfc_data_trie, ptr noundef nonnull @_ZL24norm2_nfc_data_extraData, ptr noundef nonnull @_ZL23norm2_nfc_data_smallFCD)
  %call1.i.i = tail call noundef ptr @_ZN6icu_757UMemorynwEm(i64 noundef 88) #13
  %new.isnull.i.i = icmp eq ptr %call1.i.i, null
  br i1 %new.isnull.i.i, label %delete.notnull4.i.i, label %new.cont.i.i

new.cont.i.i:                                     ; preds = %if.end.i.i
  store ptr %call1.i, ptr %call1.i.i, align 8
  %comp.i.i.i = getelementptr inbounds i8, ptr %call1.i.i, i64 8
  %impl.i.i.i.i.i = getelementptr inbounds i8, ptr %call1.i.i, i64 16
  store ptr %call1.i, ptr %impl.i.i.i.i.i, align 8
  store ptr getelementptr inbounds ({ [24 x ptr] }, ptr @_ZTVN6icu_7518ComposeNormalizer2E, i64 0, i32 0, i64 2), ptr %comp.i.i.i, align 8
  %onlyContiguous.i.i.i.i = getelementptr inbounds i8, ptr %call1.i.i, i64 24
  store i8 0, ptr %onlyContiguous.i.i.i.i, align 8
  %decomp.i.i.i = getelementptr inbounds i8, ptr %call1.i.i, i64 32
  %impl.i.i5.i.i.i = getelementptr inbounds i8, ptr %call1.i.i, i64 40
  store ptr %call1.i, ptr %impl.i.i5.i.i.i, align 8
  store ptr getelementptr inbounds ({ [24 x ptr] }, ptr @_ZTVN6icu_7520DecomposeNormalizer2E, i64 0, i32 0, i64 2), ptr %decomp.i.i.i, align 8
  %fcd.i.i.i = getelementptr inbounds i8, ptr %call1.i.i, i64 48
  %impl.i.i6.i.i.i = getelementptr inbounds i8, ptr %call1.i.i, i64 56
  store ptr %call1.i, ptr %impl.i.i6.i.i.i, align 8
  store ptr getelementptr inbounds ({ [24 x ptr] }, ptr @_ZTVN6icu_7514FCDNormalizer2E, i64 0, i32 0, i64 2), ptr %fcd.i.i.i, align 8
  %fcc.i.i.i = getelementptr inbounds i8, ptr %call1.i.i, i64 64
  %impl.i.i7.i.i.i = getelementptr inbounds i8, ptr %call1.i.i, i64 72
  store ptr %call1.i, ptr %impl.i.i7.i.i.i, align 8
  store ptr getelementptr inbounds ({ [24 x ptr] }, ptr @_ZTVN6icu_7518ComposeNormalizer2E, i64 0, i32 0, i64 2), ptr %fcc.i.i.i, align 8
  %onlyContiguous.i8.i.i.i = getelementptr inbounds i8, ptr %call1.i.i, i64 80
  store i8 1, ptr %onlyContiguous.i8.i.i.i, align 8
  br label %_ZN6icu_7513Norm2AllModes17createNFCInstanceER10UErrorCode.exit

delete.notnull4.i.i:                              ; preds = %if.end.i.i
  %vtable5.i.i = load ptr, ptr %call1.i, align 8
  %vfn6.i.i = getelementptr inbounds i8, ptr %vtable5.i.i, i64 8
  %1 = load ptr, ptr %vfn6.i.i, align 8
  tail call void %1(ptr noundef nonnull align 8 dereferenceable(80) %call1.i) #13
  br label %_ZN6icu_7513Norm2AllModes17createNFCInstanceER10UErrorCode.exit

_ZN6icu_7513Norm2AllModes17createNFCInstanceER10UErrorCode.exit: ; preds = %if.end.i, %new.cont.i.i, %delete.notnull4.i.i
  %errorCode.0 = phi i32 [ 7, %delete.notnull4.i.i ], [ 0, %new.cont.i.i ], [ 7, %if.end.i ]
  %retval.0.i4 = phi ptr [ null, %delete.notnull4.i.i ], [ %call1.i.i, %new.cont.i.i ], [ null, %if.end.i ]
  store ptr %retval.0.i4, ptr @_ZN6icu_75L12nfcSingletonE, align 8
  tail call void @ucln_common_registerCleanup_75(i32 noundef 15, ptr noundef nonnull @_ZN6icu_75L24uprv_normalizer2_cleanupEv)
  store i32 %errorCode.0, ptr getelementptr inbounds ({ { i32 }, i32 }, ptr @_ZN6icu_75L11nfcInitOnceE, i64 0, i32 1), align 4
  tail call void @_ZN6icu_7521umtx_initImplPostInitERNS_9UInitOnceE(ptr noundef nonnull align 4 dereferenceable(8) @_ZN6icu_75L11nfcInitOnceE)
  br label %_ZN6icu_7513Norm2AllModes14getNFCInstanceER10UErrorCode.exit.i

if.else.i.i.i:                                    ; preds = %land.lhs.true.i.i.i, %if.end.i.i.i
  %2 = load i32, ptr getelementptr inbounds ({ { i32 }, i32 }, ptr @_ZN6icu_75L11nfcInitOnceE, i64 0, i32 1), align 4
  %spec.select = tail call i32 @llvm.smax.i32(i32 %2, i32 0)
  br label %_ZN6icu_7513Norm2AllModes14getNFCInstanceER10UErrorCode.exit.i

_ZN6icu_7513Norm2AllModes14getNFCInstanceER10UErrorCode.exit.i: ; preds = %if.else.i.i.i, %_ZN6icu_7513Norm2AllModes17createNFCInstanceER10UErrorCode.exit
  %errorCode.1 = phi i32 [ %errorCode.0, %_ZN6icu_7513Norm2AllModes17createNFCInstanceER10UErrorCode.exit ], [ %spec.select, %if.else.i.i.i ]
  %3 = load ptr, ptr @_ZN6icu_75L12nfcSingletonE, align 8
  %cmp.not.i = icmp eq ptr %3, null
  br i1 %cmp.not.i, label %_ZN6icu_7518Normalizer2Factory10getNFCImplER10UErrorCode.exit, label %cond.true.i

cond.true.i:                                      ; preds = %_ZN6icu_7513Norm2AllModes14getNFCInstanceER10UErrorCode.exit.i
  %4 = load ptr, ptr %3, align 8
  br label %_ZN6icu_7518Normalizer2Factory10getNFCImplER10UErrorCode.exit

_ZN6icu_7518Normalizer2Factory10getNFCImplER10UErrorCode.exit: ; preds = %_ZN6icu_7513Norm2AllModes14getNFCInstanceER10UErrorCode.exit.i, %cond.true.i
  %cond.i = phi ptr [ %4, %cond.true.i ], [ null, %_ZN6icu_7513Norm2AllModes14getNFCInstanceER10UErrorCode.exit.i ]
  %cmp.i.not = icmp eq i32 %errorCode.1, 0
  br i1 %cmp.i.not, label %if.then, label %return

if.then:                                          ; preds = %_ZN6icu_7518Normalizer2Factory10getNFCImplER10UErrorCode.exit
  %minDecompNoCP.i = getelementptr inbounds i8, ptr %cond.i, i64 8
  %5 = load i16, ptr %minDecompNoCP.i, align 8
  %conv.i1 = zext i16 %5 to i32
  %cmp.i2 = icmp sgt i32 %conv.i1, %c
  br i1 %cmp.i2, label %return, label %if.else.i

if.else.i:                                        ; preds = %if.then
  %cmp2.i = icmp ult i32 %c, 65536
  br i1 %cmp2.i, label %if.then3.i, label %if.end6.i

if.then3.i:                                       ; preds = %if.else.i
  %smallFCD.i.i = getelementptr inbounds i8, ptr %cond.i, i64 56
  %6 = load ptr, ptr %smallFCD.i.i, align 8
  %shr.i.i = lshr i32 %c, 8
  %idxprom.i.i = zext nneg i32 %shr.i.i to i64
  %arrayidx.i.i = getelementptr inbounds i8, ptr %6, i64 %idxprom.i.i
  %7 = load i8, ptr %arrayidx.i.i, align 1
  %cmp.i.i = icmp eq i8 %7, 0
  %conv.i.i = zext i8 %7 to i32
  %shr3.i.i = lshr i32 %c, 5
  %and.i.i = and i32 %shr3.i.i, 7
  %8 = shl nuw nsw i32 1, %and.i.i
  %9 = and i32 %8, %conv.i.i
  %tobool.not4.i = icmp eq i32 %9, 0
  %tobool.not.i = select i1 %cmp.i.i, i1 true, i1 %tobool.not4.i
  br i1 %tobool.not.i, label %return, label %if.end6.i

if.end6.i:                                        ; preds = %if.then3.i, %if.else.i
  %call7.i = tail call noundef zeroext i16 @_ZNK6icu_7515Normalizer2Impl20getFCD16FromNormDataEi(ptr noundef nonnull align 8 dereferenceable(80) %cond.i, i32 noundef %c)
  br label %return

return:                                           ; preds = %if.end6.i, %if.then3.i, %if.then, %_ZN6icu_7518Normalizer2Factory10getNFCImplER10UErrorCode.exit
  %retval.0 = phi i16 [ 0, %_ZN6icu_7518Normalizer2Factory10getNFCImplER10UErrorCode.exit ], [ %call7.i, %if.end6.i ], [ 0, %if.then ], [ 0, %if.then3.i ]
  ret i16 %retval.0
}